target datalayout = "e-m:e-p270:32:32-p271:32:32-p272:64:64-i64:64-i128:128-f80:128-n8:16:32:64-S128"
target triple = "x86_64-pc-linux-gnu"

%struct.dbcs_index = type { ptr, i8, i8 }
%struct.MultibyteCodec_State = type { [8 x i8] }

; Function Attrs: nounwind uwtable
define internal i64 @hz_decode(ptr noundef %0, ptr noundef %1, ptr noundef %2, i64 noundef %3, ptr noundef %4) #0 {
  %6 = alloca i64, align 8
  %7 = alloca ptr, align 8
  %8 = alloca ptr, align 8
  %9 = alloca ptr, align 8
  %10 = alloca i64, align 8
  %11 = alloca ptr, align 8
  %12 = alloca i8, align 1
  %13 = alloca i32, align 4
  %14 = alloca i8, align 1
  %15 = alloca i32, align 4
  store ptr %0, ptr %7, align 8, !tbaa !3
  store ptr %1, ptr %8, align 8, !tbaa !21
  store ptr %2, ptr %9, align 8, !tbaa !68
  store i64 %3, ptr %10, align 8, !tbaa !28
  store ptr %4, ptr %11, align 8, !tbaa !3
  br label %16

16:                                               ; preds = %232, %230, %5
  %17 = load i64, ptr %10, align 8, !tbaa !28
  %18 = icmp sgt i64 %17, 0
  br i1 %18, label %19, label %233

19:                                               ; preds = %16
  call void @llvm.lifetime.start.p0(i64 1, ptr %12) #9
  %20 = load ptr, ptr %9, align 8, !tbaa !68
  %21 = load ptr, ptr %20, align 8, !tbaa !17
  %22 = getelementptr i8, ptr %21, i64 0
  %23 = load i8, ptr %22, align 1, !tbaa !42
  store i8 %23, ptr %12, align 1, !tbaa !42
  call void @llvm.lifetime.start.p0(i64 4, ptr %13) #9
  %24 = load i8, ptr %12, align 1, !tbaa !42
  %25 = zext i8 %24 to i32
  %26 = icmp eq i32 %25, 126
  br i1 %26, label %27, label %114

27:                                               ; preds = %19
  call void @llvm.lifetime.start.p0(i64 1, ptr %14) #9
  %28 = load ptr, ptr %9, align 8, !tbaa !68
  %29 = load ptr, ptr %28, align 8, !tbaa !17
  %30 = getelementptr i8, ptr %29, i64 1
  %31 = load i8, ptr %30, align 1, !tbaa !42
  store i8 %31, ptr %14, align 1, !tbaa !42
  br label %32

32:                                               ; preds = %27
  %33 = load i64, ptr %10, align 8, !tbaa !28
  %34 = icmp slt i64 %33, 2
  br i1 %34, label %35, label %36

35:                                               ; preds = %32
  store i64 -2, ptr %6, align 8
  store i32 1, ptr %15, align 4
  br label %113

36:                                               ; preds = %32
  br label %37

37:                                               ; preds = %36
  br label %38

38:                                               ; preds = %37
  %39 = load i8, ptr %14, align 1, !tbaa !42
  %40 = zext i8 %39 to i32
  %41 = icmp eq i32 %40, 126
  br i1 %41, label %42, label %58

42:                                               ; preds = %38
  %43 = load ptr, ptr %7, align 8, !tbaa !3
  %44 = getelementptr inbounds nuw %struct.MultibyteCodec_State, ptr %43, i32 0, i32 0
  %45 = getelementptr [8 x i8], ptr %44, i64 0, i64 0
  %46 = load i8, ptr %45, align 1, !tbaa !42
  %47 = zext i8 %46 to i32
  %48 = icmp eq i32 %47, 0
  br i1 %48, label %49, label %58

49:                                               ; preds = %42
  br label %50

50:                                               ; preds = %49
  %51 = load ptr, ptr %11, align 8, !tbaa !3
  %52 = call i32 @_PyUnicodeWriter_WriteChar(ptr noundef %51, i32 noundef 126)
  %53 = icmp slt i32 %52, 0
  br i1 %53, label %54, label %55

54:                                               ; preds = %50
  store i64 -4, ptr %6, align 8
  store i32 1, ptr %15, align 4
  br label %113

55:                                               ; preds = %50
  br label %56

56:                                               ; preds = %55
  br label %57

57:                                               ; preds = %56
  br label %104

58:                                               ; preds = %42, %38
  %59 = load i8, ptr %14, align 1, !tbaa !42
  %60 = zext i8 %59 to i32
  %61 = icmp eq i32 %60, 123
  br i1 %61, label %62, label %73

62:                                               ; preds = %58
  %63 = load ptr, ptr %7, align 8, !tbaa !3
  %64 = getelementptr inbounds nuw %struct.MultibyteCodec_State, ptr %63, i32 0, i32 0
  %65 = getelementptr [8 x i8], ptr %64, i64 0, i64 0
  %66 = load i8, ptr %65, align 1, !tbaa !42
  %67 = zext i8 %66 to i32
  %68 = icmp eq i32 %67, 0
  br i1 %68, label %69, label %73

69:                                               ; preds = %62
  %70 = load ptr, ptr %7, align 8, !tbaa !3
  %71 = getelementptr inbounds nuw %struct.MultibyteCodec_State, ptr %70, i32 0, i32 0
  %72 = getelementptr [8 x i8], ptr %71, i64 0, i64 0
  store i8 1, ptr %72, align 1, !tbaa !42
  br label %103

73:                                               ; preds = %62, %58
  %74 = load i8, ptr %14, align 1, !tbaa !42
  %75 = zext i8 %74 to i32
  %76 = icmp eq i32 %75, 10
  br i1 %76, label %77, label %85

77:                                               ; preds = %73
  %78 = load ptr, ptr %7, align 8, !tbaa !3
  %79 = getelementptr inbounds nuw %struct.MultibyteCodec_State, ptr %78, i32 0, i32 0
  %80 = getelementptr [8 x i8], ptr %79, i64 0, i64 0
  %81 = load i8, ptr %80, align 1, !tbaa !42
  %82 = zext i8 %81 to i32
  %83 = icmp eq i32 %82, 0
  br i1 %83, label %84, label %85

84:                                               ; preds = %77
  br label %102

85:                                               ; preds = %77, %73
  %86 = load i8, ptr %14, align 1, !tbaa !42
  %87 = zext i8 %86 to i32
  %88 = icmp eq i32 %87, 125
  br i1 %88, label %89, label %100

89:                                               ; preds = %85
  %90 = load ptr, ptr %7, align 8, !tbaa !3
  %91 = getelementptr inbounds nuw %struct.MultibyteCodec_State, ptr %90, i32 0, i32 0
  %92 = getelementptr [8 x i8], ptr %91, i64 0, i64 0
  %93 = load i8, ptr %92, align 1, !tbaa !42
  %94 = zext i8 %93 to i32
  %95 = icmp eq i32 %94, 1
  br i1 %95, label %96, label %100

96:                                               ; preds = %89
  %97 = load ptr, ptr %7, align 8, !tbaa !3
  %98 = getelementptr inbounds nuw %struct.MultibyteCodec_State, ptr %97, i32 0, i32 0
  %99 = getelementptr [8 x i8], ptr %98, i64 0, i64 0
  store i8 0, ptr %99, align 1, !tbaa !42
  br label %101

100:                                              ; preds = %89, %85
  store i64 1, ptr %6, align 8
  store i32 1, ptr %15, align 4
  br label %113

101:                                              ; preds = %96
  br label %102

102:                                              ; preds = %101, %84
  br label %103

103:                                              ; preds = %102, %69
  br label %104

104:                                              ; preds = %103, %57
  br label %105

105:                                              ; preds = %104
  %106 = load ptr, ptr %9, align 8, !tbaa !68
  %107 = load ptr, ptr %106, align 8, !tbaa !17
  %108 = getelementptr i8, ptr %107, i64 2
  store ptr %108, ptr %106, align 8, !tbaa !17
  %109 = load i64, ptr %10, align 8, !tbaa !28
  %110 = sub i64 %109, 2
  store i64 %110, ptr %10, align 8, !tbaa !28
  br label %111

111:                                              ; preds = %105
  br label %112

112:                                              ; preds = %111
  store i32 2, ptr %15, align 4
  br label %113, !llvm.loop !95

113:                                              ; preds = %112, %100, %54, %35
  call void @llvm.lifetime.end.p0(i64 1, ptr %14) #9
  br label %230

114:                                              ; preds = %19
  %115 = load i8, ptr %12, align 1, !tbaa !42
  %116 = zext i8 %115 to i32
  %117 = and i32 %116, 128
  %118 = icmp ne i32 %117, 0
  br i1 %118, label %119, label %120

119:                                              ; preds = %114
  store i64 1, ptr %6, align 8
  store i32 1, ptr %15, align 4
  br label %230

120:                                              ; preds = %114
  %121 = load ptr, ptr %7, align 8, !tbaa !3
  %122 = getelementptr inbounds nuw %struct.MultibyteCodec_State, ptr %121, i32 0, i32 0
  %123 = getelementptr [8 x i8], ptr %122, i64 0, i64 0
  %124 = load i8, ptr %123, align 1, !tbaa !42
  %125 = zext i8 %124 to i32
  %126 = icmp eq i32 %125, 0
  br i1 %126, label %127, label %146

127:                                              ; preds = %120
  br label %128

128:                                              ; preds = %127
  %129 = load ptr, ptr %11, align 8, !tbaa !3
  %130 = load i8, ptr %12, align 1, !tbaa !42
  %131 = zext i8 %130 to i32
  %132 = call i32 @_PyUnicodeWriter_WriteChar(ptr noundef %129, i32 noundef %131)
  %133 = icmp slt i32 %132, 0
  br i1 %133, label %134, label %135

134:                                              ; preds = %128
  store i64 -4, ptr %6, align 8
  store i32 1, ptr %15, align 4
  br label %230

135:                                              ; preds = %128
  br label %136

136:                                              ; preds = %135
  br label %137

137:                                              ; preds = %136
  br label %138

138:                                              ; preds = %137
  %139 = load ptr, ptr %9, align 8, !tbaa !68
  %140 = load ptr, ptr %139, align 8, !tbaa !17
  %141 = getelementptr i8, ptr %140, i64 1
  store ptr %141, ptr %139, align 8, !tbaa !17
  %142 = load i64, ptr %10, align 8, !tbaa !28
  %143 = sub i64 %142, 1
  store i64 %143, ptr %10, align 8, !tbaa !28
  br label %144

144:                                              ; preds = %138
  br label %145

145:                                              ; preds = %144
  br label %229

146:                                              ; preds = %120
  br label %147

147:                                              ; preds = %146
  %148 = load i64, ptr %10, align 8, !tbaa !28
  %149 = icmp slt i64 %148, 2
  br i1 %149, label %150, label %151

150:                                              ; preds = %147
  store i64 -2, ptr %6, align 8
  store i32 1, ptr %15, align 4
  br label %230

151:                                              ; preds = %147
  br label %152

152:                                              ; preds = %151
  br label %153

153:                                              ; preds = %152
  %154 = load i8, ptr %12, align 1, !tbaa !42
  %155 = zext i8 %154 to i64
  %156 = getelementptr [256 x %struct.dbcs_index], ptr @gb2312_decmap, i64 0, i64 %155
  %157 = getelementptr inbounds nuw %struct.dbcs_index, ptr %156, i32 0, i32 0
  %158 = load ptr, ptr %157, align 16, !tbaa !78
  %159 = icmp ne ptr %158, null
  br i1 %159, label %160, label %227

160:                                              ; preds = %153
  %161 = load ptr, ptr %9, align 8, !tbaa !68
  %162 = load ptr, ptr %161, align 8, !tbaa !17
  %163 = getelementptr i8, ptr %162, i64 1
  %164 = load i8, ptr %163, align 1, !tbaa !42
  %165 = zext i8 %164 to i32
  %166 = load i8, ptr %12, align 1, !tbaa !42
  %167 = zext i8 %166 to i64
  %168 = getelementptr [256 x %struct.dbcs_index], ptr @gb2312_decmap, i64 0, i64 %167
  %169 = getelementptr inbounds nuw %struct.dbcs_index, ptr %168, i32 0, i32 1
  %170 = load i8, ptr %169, align 8, !tbaa !80
  %171 = zext i8 %170 to i32
  %172 = icmp sge i32 %165, %171
  br i1 %172, label %173, label %227

173:                                              ; preds = %160
  %174 = load ptr, ptr %9, align 8, !tbaa !68
  %175 = load ptr, ptr %174, align 8, !tbaa !17
  %176 = getelementptr i8, ptr %175, i64 1
  %177 = load i8, ptr %176, align 1, !tbaa !42
  %178 = zext i8 %177 to i32
  %179 = load i8, ptr %12, align 1, !tbaa !42
  %180 = zext i8 %179 to i64
  %181 = getelementptr [256 x %struct.dbcs_index], ptr @gb2312_decmap, i64 0, i64 %180
  %182 = getelementptr inbounds nuw %struct.dbcs_index, ptr %181, i32 0, i32 2
  %183 = load i8, ptr %182, align 1, !tbaa !81
  %184 = zext i8 %183 to i32
  %185 = icmp sle i32 %178, %184
  br i1 %185, label %186, label %227

186:                                              ; preds = %173
  %187 = load i8, ptr %12, align 1, !tbaa !42
  %188 = zext i8 %187 to i64
  %189 = getelementptr [256 x %struct.dbcs_index], ptr @gb2312_decmap, i64 0, i64 %188
  %190 = getelementptr inbounds nuw %struct.dbcs_index, ptr %189, i32 0, i32 0
  %191 = load ptr, ptr %190, align 16, !tbaa !78
  %192 = load ptr, ptr %9, align 8, !tbaa !68
  %193 = load ptr, ptr %192, align 8, !tbaa !17
  %194 = getelementptr i8, ptr %193, i64 1
  %195 = load i8, ptr %194, align 1, !tbaa !42
  %196 = zext i8 %195 to i32
  %197 = load i8, ptr %12, align 1, !tbaa !42
  %198 = zext i8 %197 to i64
  %199 = getelementptr [256 x %struct.dbcs_index], ptr @gb2312_decmap, i64 0, i64 %198
  %200 = getelementptr inbounds nuw %struct.dbcs_index, ptr %199, i32 0, i32 1
  %201 = load i8, ptr %200, align 8, !tbaa !80
  %202 = zext i8 %201 to i32
  %203 = sub i32 %196, %202
  %204 = sext i32 %203 to i64
  %205 = getelementptr i16, ptr %191, i64 %204
  %206 = load i16, ptr %205, align 2, !tbaa !76
  %207 = zext i16 %206 to i32
  store i32 %207, ptr %13, align 4, !tbaa !19
  %208 = icmp ne i32 %207, 65534
  br i1 %208, label %209, label %227

209:                                              ; preds = %186
  br label %210

210:                                              ; preds = %209
  %211 = load ptr, ptr %11, align 8, !tbaa !3
  %212 = load i32, ptr %13, align 4, !tbaa !19
  %213 = call i32 @_PyUnicodeWriter_WriteChar(ptr noundef %211, i32 noundef %212)
  %214 = icmp slt i32 %213, 0
  br i1 %214, label %215, label %216

215:                                              ; preds = %210
  store i64 -4, ptr %6, align 8
  store i32 1, ptr %15, align 4
  br label %230

216:                                              ; preds = %210
  br label %217

217:                                              ; preds = %216
  br label %218

218:                                              ; preds = %217
  br label %219

219:                                              ; preds = %218
  %220 = load ptr, ptr %9, align 8, !tbaa !68
  %221 = load ptr, ptr %220, align 8, !tbaa !17
  %222 = getelementptr i8, ptr %221, i64 2
  store ptr %222, ptr %220, align 8, !tbaa !17
  %223 = load i64, ptr %10, align 8, !tbaa !28
  %224 = sub i64 %223, 2
  store i64 %224, ptr %10, align 8, !tbaa !28
  br label %225

225:                                              ; preds = %219
  br label %226

226:                                              ; preds = %225
  br label %228

227:                                              ; preds = %186, %173, %160, %153
  store i64 1, ptr %6, align 8
  store i32 1, ptr %15, align 4
  br label %230

228:                                              ; preds = %226
  br label %229

229:                                              ; preds = %228, %145
  store i32 0, ptr %15, align 4
  br label %230

230:                                              ; preds = %229, %227, %215, %150, %134, %119, %113
  call void @llvm.lifetime.end.p0(i64 4, ptr %13) #9
  call void @llvm.lifetime.end.p0(i64 1, ptr %12) #9
  %231 = load i32, ptr %15, align 4
  switch i32 %231, label %236 [
    i32 0, label %232
    i32 1, label %234
    i32 2, label %16
  ]

232:                                              ; preds = %230
  br label %16, !llvm.loop !95

233:                                              ; preds = %16
  store i64 0, ptr %6, align 8
  br label %234

234:                                              ; preds = %233, %230
  %235 = load i64, ptr %6, align 8
  ret i64 %235

236:                                              ; preds = %230
  unreachable
}