; Function Attrs: nounwind uwtable
define internal range(i64 -4, 2) i64 @hz_decode(ptr noundef captures(none) %0, ptr readnone captures(none) %1, ptr noundef captures(none) %2, i64 noundef %3, ptr noundef %4) #0 {
  %6 = icmp sgt i64 %3, 0
  br i1 %6, label %.lr.ph.preheader, label %.thread

.lr.ph.preheader:                                 ; preds = %5
  %.pre = load ptr, ptr %2, align 8, !tbaa !37
  br label %.lr.ph

.lr.ph:                                           ; preds = %.lr.ph.preheader, %62
  %7 = phi ptr [ %64, %62 ], [ %.pre, %.lr.ph.preheader ]
  %.04058 = phi i64 [ %65, %62 ], [ %3, %.lr.ph.preheader ]
  %8 = load i8, ptr %7, align 1, !tbaa !34
  %9 = zext i8 %8 to i32
  %10 = icmp eq i8 %8, 126
  br i1 %10, label %11, label %31

11:                                               ; preds = %.lr.ph
  %12 = icmp eq i64 %.04058, 1
  br i1 %12, label %.thread, label %13

13:                                               ; preds = %11
  %14 = getelementptr i8, ptr %7, i64 1
  %15 = load i8, ptr %14, align 1, !tbaa !34
  switch i8 %15, label %.thread [
    i8 126, label %16
    i8 123, label %22
    i8 10, label %25
    i8 125, label %28
  ]

16:                                               ; preds = %13
  %17 = load i8, ptr %0, align 1, !tbaa !34
  %18 = icmp eq i8 %17, 0
  br i1 %18, label %19, label %.thread

19:                                               ; preds = %16
  %20 = tail call i32 @_PyUnicodeWriter_WriteChar(ptr noundef %4, i32 noundef 126) #9
  %21 = icmp slt i32 %20, 0
  br i1 %21, label %.thread, label %62, !llvm.loop !74

22:                                               ; preds = %13
  %23 = load i8, ptr %0, align 1, !tbaa !34
  %24 = icmp eq i8 %23, 0
  br i1 %24, label %.sink.split, label %.thread

25:                                               ; preds = %13
  %26 = load i8, ptr %0, align 1, !tbaa !34
  %27 = icmp eq i8 %26, 0
  br i1 %27, label %62, label %.thread, !llvm.loop !74

28:                                               ; preds = %13
  %29 = load i8, ptr %0, align 1, !tbaa !34
  %30 = icmp eq i8 %29, 1
  br i1 %30, label %.sink.split, label %.thread

.sink.split:                                      ; preds = %28, %22
  %.sink = phi i8 [ 1, %22 ], [ 0, %28 ]
  store i8 %.sink, ptr %0, align 1, !tbaa !34
  br label %62, !llvm.loop !74

31:                                               ; preds = %.lr.ph
  %.not = icmp sgt i8 %8, -1
  br i1 %.not, label %32, label %.thread

32:                                               ; preds = %31
  %33 = load i8, ptr %0, align 1, !tbaa !34
  %34 = icmp eq i8 %33, 0
  br i1 %34, label %35, label %38

35:                                               ; preds = %32
  %36 = tail call i32 @_PyUnicodeWriter_WriteChar(ptr noundef %4, i32 noundef %9) #9
  %37 = icmp slt i32 %36, 0
  br i1 %37, label %.thread, label %62

38:                                               ; preds = %32
  %39 = icmp eq i64 %.04058, 1
  br i1 %39, label %.thread, label %40

40:                                               ; preds = %38
  %41 = zext nneg i8 %8 to i64
  %42 = getelementptr [256 x %struct.dbcs_index], ptr @gb2312_decmap, i64 0, i64 %41
  %43 = load ptr, ptr %42, align 16, !tbaa !59
  %.not49 = icmp eq ptr %43, null
  br i1 %.not49, label %.thread, label %44

44:                                               ; preds = %40
  %45 = getelementptr i8, ptr %7, i64 1
  %46 = load i8, ptr %45, align 1, !tbaa !34
  %47 = zext i8 %46 to i64
  %48 = getelementptr inbounds nuw i8, ptr %42, i64 8
  %49 = load i8, ptr %48, align 8, !tbaa !61
  %50 = zext i8 %49 to i64
  %.not50 = icmp ult i8 %46, %49
  br i1 %.not50, label %.thread, label %51

51:                                               ; preds = %44
  %52 = getelementptr inbounds nuw i8, ptr %42, i64 9
  %53 = load i8, ptr %52, align 1, !tbaa !62
  %.not51 = icmp ugt i8 %46, %53
  br i1 %.not51, label %.thread, label %54

54:                                               ; preds = %51
  %55 = sub nsw i64 %47, %50
  %56 = getelementptr i16, ptr %43, i64 %55
  %57 = load i16, ptr %56, align 2, !tbaa !50
  %.not52 = icmp eq i16 %57, -2
  br i1 %.not52, label %.thread, label %58

58:                                               ; preds = %54
  %59 = zext i16 %57 to i32
  %60 = tail call i32 @_PyUnicodeWriter_WriteChar(ptr noundef %4, i32 noundef %59) #9
  %61 = icmp slt i32 %60, 0
  br i1 %61, label %.thread, label %62

62:                                               ; preds = %58, %35, %25, %19, %.sink.split
  %.sink92 = phi i64 [ 2, %.sink.split ], [ 2, %19 ], [ 2, %25 ], [ 1, %35 ], [ 2, %58 ]
  %.sink89 = phi i64 [ -2, %.sink.split ], [ -2, %19 ], [ -2, %25 ], [ -1, %35 ], [ -2, %58 ]
  %63 = load ptr, ptr %2, align 8, !tbaa !37
  %64 = getelementptr i8, ptr %63, i64 %.sink92
  store ptr %64, ptr %2, align 8, !tbaa !37
  %65 = add nsw i64 %.04058, %.sink89
  %66 = icmp sgt i64 %65, 0
  br i1 %66, label %.lr.ph, label %.thread

.thread:                                          ; preds = %62, %11, %19, %13, %28, %31, %35, %38, %58, %54, %51, %44, %40, %16, %22, %25, %5
  %.3 = phi i64 [ 0, %5 ], [ 1, %25 ], [ 1, %22 ], [ 1, %16 ], [ 1, %40 ], [ 1, %44 ], [ 1, %51 ], [ 1, %54 ], [ -4, %58 ], [ -2, %38 ], [ -4, %35 ], [ 1, %31 ], [ 1, %28 ], [ 1, %13 ], [ -4, %19 ], [ -2, %11 ], [ 0, %62 ]
  ret i64 %.3
}